target datalayout = "e-m:e-p270:32:32-p271:32:32-p272:64:64-i64:64-i128:128-f80:128-n8:16:32:64-S128"
target triple = "x86_64-unknown-linux-gnu"

%"class.std::set.0" = type { %"class.std::_Rb_tree.1" }
%"class.std::_Rb_tree.1" = type { %"struct.std::_Rb_tree<QuantLib::Observer *, QuantLib::Observer *, std::_Identity<QuantLib::Observer *>, std::less<QuantLib::Observer *>>::_Rb_tree_impl" }
%"struct.std::_Rb_tree<QuantLib::Observer *, QuantLib::Observer *, std::_Identity<QuantLib::Observer *>, std::less<QuantLib::Observer *>>::_Rb_tree_impl" = type { [8 x i8], %"struct.std::_Rb_tree_header" }
%"struct.std::_Rb_tree_header" = type { %"struct.std::_Rb_tree_node_base", i64 }
%"struct.std::_Rb_tree_node_base" = type { i32, ptr, ptr, ptr }
%"class.std::set" = type { %"class.std::_Rb_tree" }
%"class.std::_Rb_tree" = type { %"struct.std::_Rb_tree<boost::shared_ptr<QuantLib::Observable>, boost::shared_ptr<QuantLib::Observable>, std::_Identity<boost::shared_ptr<QuantLib::Observable>>, std::less<boost::shared_ptr<QuantLib::Observable>>>::_Rb_tree_impl" }
%"struct.std::_Rb_tree<boost::shared_ptr<QuantLib::Observable>, boost::shared_ptr<QuantLib::Observable>, std::_Identity<boost::shared_ptr<QuantLib::Observable>>, std::less<boost::shared_ptr<QuantLib::Observable>>>::_Rb_tree_impl" = type { [8 x i8], %"struct.std::_Rb_tree_header" }
%"class.QuantLib::Observable" = type { ptr, %"class.std::set.0" }
%"class.QuantLib::FloatingRateCouponPricer.base" = type { ptr }
%"class.QuantLib::Observer" = type { ptr, %"class.std::set" }
%"class.QuantLib::ArithmeticAveragedOvernightIndexedCouponPricer" = type { %"class.QuantLib::FloatingRateCouponPricer.base", ptr, i8, double, double, %"class.QuantLib::Observer", %"class.QuantLib::Observable" }

; Function Attrs: mustprogress nounwind uwtable
define noundef double @_ZNK8QuantLib46ArithmeticAveragedOvernightIndexedCouponPricer8convAdj1Edd(ptr noundef nonnull align 8 dereferenceable(40) %this, double noundef %ts, double noundef %te) #1 align 2 {
entry:
  %this.addr = alloca ptr, align 8
  %ts.addr = alloca double, align 8
  %te.addr = alloca double, align 8
  store ptr %this, ptr %this.addr, align 8, !tbaa !3
  store double %ts, ptr %ts.addr, align 8, !tbaa !27
  store double %te, ptr %te.addr, align 8, !tbaa !27
  %this1 = load ptr, ptr %this.addr, align 8
  %vol_ = getelementptr inbounds nuw %"class.QuantLib::ArithmeticAveragedOvernightIndexedCouponPricer", ptr %this1, i32 0, i32 4
  %0 = load double, ptr %vol_, align 8, !tbaa !76
  %vol_2 = getelementptr inbounds nuw %"class.QuantLib::ArithmeticAveragedOvernightIndexedCouponPricer", ptr %this1, i32 0, i32 4
  %1 = load double, ptr %vol_2, align 8, !tbaa !76
  %mul = fmul double %0, %1
  %mrs_ = getelementptr inbounds nuw %"class.QuantLib::ArithmeticAveragedOvernightIndexedCouponPricer", ptr %this1, i32 0, i32 3
  %2 = load double, ptr %mrs_, align 8, !tbaa !77
  %call = call double @pow(double noundef %2, double noundef 3.000000e+00) #15, !tbaa !75
  %mul3 = fmul double 4.000000e+00, %call
  %div = fdiv double %mul, %mul3
  %mrs_4 = getelementptr inbounds nuw %"class.QuantLib::ArithmeticAveragedOvernightIndexedCouponPricer", ptr %this1, i32 0, i32 3
  %3 = load double, ptr %mrs_4, align 8, !tbaa !77
  %mul5 = fmul double -2.000000e+00, %3
  %4 = load double, ptr %ts.addr, align 8, !tbaa !27
  %mul6 = fmul double %mul5, %4
  %call7 = call double @exp(double noundef %mul6) #15, !tbaa !75
  %sub = fsub double 1.000000e+00, %call7
  %mul8 = fmul double %div, %sub
  %mrs_9 = getelementptr inbounds nuw %"class.QuantLib::ArithmeticAveragedOvernightIndexedCouponPricer", ptr %this1, i32 0, i32 3
  %5 = load double, ptr %mrs_9, align 8, !tbaa !77
  %fneg = fneg double %5
  %6 = load double, ptr %te.addr, align 8, !tbaa !27
  %7 = load double, ptr %ts.addr, align 8, !tbaa !27
  %sub10 = fsub double %6, %7
  %mul11 = fmul double %fneg, %sub10
  %call12 = call double @exp(double noundef %mul11) #15, !tbaa !75
  %sub13 = fsub double 1.000000e+00, %call12
  %call14 = call double @pow(double noundef %sub13, double noundef 2.000000e+00) #15, !tbaa !75
  %mul15 = fmul double %mul8, %call14
  ret double %mul15
}