; Function Attrs: mustprogress nofree nounwind willreturn memory(write, argmem: readwrite) uwtable
define noundef double @_ZNK8QuantLib46ArithmeticAveragedOvernightIndexedCouponPricer8convAdj1Edd(ptr nocapture noundef nonnull readonly align 8 dereferenceable(40) %this, double noundef %ts, double noundef %te) local_unnamed_addr #14 align 2 {
entry:
  %vol_ = getelementptr inbounds nuw i8, ptr %this, i64 32
  %0 = load double, ptr %vol_, align 8, !tbaa !124
  %mul = fmul double %0, %0
  %mrs_ = getelementptr inbounds nuw i8, ptr %this, i64 24
  %1 = load double, ptr %mrs_, align 8, !tbaa !125
  %call = tail call double @pow(double noundef %1, double noundef 3.000000e+00) #29, !tbaa !123
  %mul3 = fmul double %call, 4.000000e+00
  %div = fdiv double %mul, %mul3
  %mul5 = fmul double %1, -2.000000e+00
  %mul6 = fmul double %ts, %mul5
  %call7 = tail call double @exp(double noundef %mul6) #29, !tbaa !123
  %sub = fsub double 1.000000e+00, %call7
  %mul8 = fmul double %div, %sub
  %fneg = fneg double %1
  %sub10 = fsub double %te, %ts
  %mul11 = fmul double %sub10, %fneg
  %call12 = tail call double @exp(double noundef %mul11) #29, !tbaa !123
  %sub13 = fsub double 1.000000e+00, %call12
  %square = fmul double %sub13, %sub13
  %mul15 = fmul double %mul8, %square
  ret double %mul15
}